ARM GAS  C:\Users\YLAI2\AppData\Local\Temp\ccI30fPT.s 			page 1


   1              		.cpu cortex-m3
   2              		.arch armv7-m
   3              		.fpu softvfp
   4              		.eabi_attribute 20, 1
   5              		.eabi_attribute 21, 1
   6              		.eabi_attribute 23, 3
   7              		.eabi_attribute 24, 1
   8              		.eabi_attribute 25, 1
   9              		.eabi_attribute 26, 1
  10              		.eabi_attribute 30, 1
  11              		.eabi_attribute 34, 1
  12              		.eabi_attribute 18, 4
  13              		.file	"Interrupt.c"
  14              		.text
  15              	.Ltext0:
  16              		.cfi_sections	.debug_frame
  17              		.file 1 "Core/Src/Interrupt.c"
  18              		.section	.text.myPriorityGroupSetting,"ax",%progbits
  19              		.align	1
  20              		.global	myPriorityGroupSetting
  21              		.syntax unified
  22              		.thumb
  23              		.thumb_func
  25              	myPriorityGroupSetting:
  26              	.LFB0:
   1:Core/Src/Interrupt.c **** #include "Interrupt.h"
   2:Core/Src/Interrupt.c **** #include "uart_printf.h"
   3:Core/Src/Interrupt.c **** 
   4:Core/Src/Interrupt.c **** static InterruptPriorityConf *InterruptPriority = (InterruptPriorityConf *)0xE000E400;
   5:Core/Src/Interrupt.c **** static InterruptEnableConf *InterruptEnable = (InterruptEnableConf *)0xE000E100;
   6:Core/Src/Interrupt.c **** 
   7:Core/Src/Interrupt.c **** uint8_t data_count = 0;         // 收到的消息帧计数
   8:Core/Src/Interrupt.c **** uint8_t get_frame_head = false; // 收到了信息头
   9:Core/Src/Interrupt.c **** 
  10:Core/Src/Interrupt.c **** extern MyUSART_tydef *USART1_BASS;
  11:Core/Src/Interrupt.c **** extern MyUSART_tydef *USART2_BASS;
  12:Core/Src/Interrupt.c **** // 设置优先级分组
  13:Core/Src/Interrupt.c **** void myPriorityGroupSetting()
  14:Core/Src/Interrupt.c **** {
  27              		.loc 1 14 1 view -0
  28              		.cfi_startproc
  29              		@ args = 0, pretend = 0, frame = 0
  30              		@ frame_needed = 0, uses_anonymous_args = 0
  31              		@ link register save eliminated.
  15:Core/Src/Interrupt.c ****     // 2 抢占 2 子
  16:Core/Src/Interrupt.c ****     volatile uint32_t *SCB_AIRCR = (uint32_t *)0xE000ED00;
  32              		.loc 1 16 5 view .LVU1
  33              	.LVL0:
  17:Core/Src/Interrupt.c ****     *SCB_AIRCR |= (0x05FAUL << 16) | (0x05 << 8);
  34              		.loc 1 17 5 view .LVU2
  35 0000 4FF0E022 		mov	r2, #-536813568
  36 0004 D2F8003D 		ldr	r3, [r2, #3328]
  37              		.loc 1 17 16 is_stmt 0 view .LVU3
  38 0008 43F00523 		orr	r3, r3, #83887360
  39 000c 43F47A03 		orr	r3, r3, #16384000
  40 0010 C2F8003D 		str	r3, [r2, #3328]
  18:Core/Src/Interrupt.c **** }
ARM GAS  C:\Users\YLAI2\AppData\Local\Temp\ccI30fPT.s 			page 2


  41              		.loc 1 18 1 view .LVU4
  42 0014 7047     		bx	lr
  43              		.cfi_endproc
  44              	.LFE0:
  46              		.section	.text.usart1PrioritySetAndEnable,"ax",%progbits
  47              		.align	1
  48              		.global	usart1PrioritySetAndEnable
  49              		.syntax unified
  50              		.thumb
  51              		.thumb_func
  53              	usart1PrioritySetAndEnable:
  54              	.LFB1:
  19:Core/Src/Interrupt.c **** 
  20:Core/Src/Interrupt.c **** // 设置uart中断的优先级和使能 最低的15
  21:Core/Src/Interrupt.c **** void usart1PrioritySetAndEnable()
  22:Core/Src/Interrupt.c **** {
  55              		.loc 1 22 1 is_stmt 1 view -0
  56              		.cfi_startproc
  57              		@ args = 0, pretend = 0, frame = 0
  58              		@ frame_needed = 0, uses_anonymous_args = 0
  59              		@ link register save eliminated.
  23:Core/Src/Interrupt.c ****     // 中断的接受和发送空中断由程序代码控制
  24:Core/Src/Interrupt.c **** 
  25:Core/Src/Interrupt.c ****     // 中断优先级
  26:Core/Src/Interrupt.c ****     InterruptPriority->IP[37] = 15UL << 4;
  60              		.loc 1 26 5 view .LVU6
  61              		.loc 1 26 31 is_stmt 0 view .LVU7
  62 0000 044B     		ldr	r3, .L3
  63 0002 F022     		movs	r2, #240
  64 0004 83F82520 		strb	r2, [r3, #37]
  27:Core/Src/Interrupt.c ****     // 使能中断
  28:Core/Src/Interrupt.c ****     InterruptEnable->ISER[37 / 32] = 1UL << (37 - 32);
  65              		.loc 1 28 5 is_stmt 1 view .LVU8
  66              		.loc 1 28 36 is_stmt 0 view .LVU9
  67 0008 A3F54073 		sub	r3, r3, #768
  68 000c 2022     		movs	r2, #32
  69 000e 5A60     		str	r2, [r3, #4]
  29:Core/Src/Interrupt.c **** }
  70              		.loc 1 29 1 view .LVU10
  71 0010 7047     		bx	lr
  72              	.L4:
  73 0012 00BF     		.align	2
  74              	.L3:
  75 0014 00E400E0 		.word	-536812544
  76              		.cfi_endproc
  77              	.LFE1:
  79              		.section	.text.usart2PrioritySetAndEnable,"ax",%progbits
  80              		.align	1
  81              		.global	usart2PrioritySetAndEnable
  82              		.syntax unified
  83              		.thumb
  84              		.thumb_func
  86              	usart2PrioritySetAndEnable:
  87              	.LFB2:
  30:Core/Src/Interrupt.c **** 
  31:Core/Src/Interrupt.c **** // 设置uart中断的优先级和使能 最低的15
  32:Core/Src/Interrupt.c **** void usart2PrioritySetAndEnable()
ARM GAS  C:\Users\YLAI2\AppData\Local\Temp\ccI30fPT.s 			page 3


  33:Core/Src/Interrupt.c **** {
  88              		.loc 1 33 1 is_stmt 1 view -0
  89              		.cfi_startproc
  90              		@ args = 0, pretend = 0, frame = 0
  91              		@ frame_needed = 0, uses_anonymous_args = 0
  92              		@ link register save eliminated.
  34:Core/Src/Interrupt.c ****     // 中断的接受和发送空中断由程序代码控制
  35:Core/Src/Interrupt.c **** 
  36:Core/Src/Interrupt.c ****     // 中断优先级
  37:Core/Src/Interrupt.c ****     InterruptPriority->IP[38] = 15UL << 4;
  93              		.loc 1 37 5 view .LVU12
  94              		.loc 1 37 31 is_stmt 0 view .LVU13
  95 0000 044B     		ldr	r3, .L6
  96 0002 F022     		movs	r2, #240
  97 0004 83F82620 		strb	r2, [r3, #38]
  38:Core/Src/Interrupt.c ****     // 使能中断
  39:Core/Src/Interrupt.c ****     InterruptEnable->ISER[38 / 32] = 1UL << (38 - 32);
  98              		.loc 1 39 5 is_stmt 1 view .LVU14
  99              		.loc 1 39 36 is_stmt 0 view .LVU15
 100 0008 A3F54073 		sub	r3, r3, #768
 101 000c 4022     		movs	r2, #64
 102 000e 5A60     		str	r2, [r3, #4]
  40:Core/Src/Interrupt.c **** }
 103              		.loc 1 40 1 view .LVU16
 104 0010 7047     		bx	lr
 105              	.L7:
 106 0012 00BF     		.align	2
 107              	.L6:
 108 0014 00E400E0 		.word	-536812544
 109              		.cfi_endproc
 110              	.LFE2:
 112              		.section	.text.USART2_IRQHandler,"ax",%progbits
 113              		.align	1
 114              		.global	USART2_IRQHandler
 115              		.syntax unified
 116              		.thumb
 117              		.thumb_func
 119              	USART2_IRQHandler:
 120              	.LFB3:
  41:Core/Src/Interrupt.c **** 
  42:Core/Src/Interrupt.c **** // 中断函数
  43:Core/Src/Interrupt.c **** void USART2_IRQHandler(void)
  44:Core/Src/Interrupt.c **** {
 121              		.loc 1 44 1 is_stmt 1 view -0
 122              		.cfi_startproc
 123              		@ args = 0, pretend = 0, frame = 0
 124              		@ frame_needed = 0, uses_anonymous_args = 0
 125 0000 08B5     		push	{r3, lr}
 126              		.cfi_def_cfa_offset 8
 127              		.cfi_offset 3, -8
 128              		.cfi_offset 14, -4
  45:Core/Src/Interrupt.c ****     // 发送寄存器空 且开启了发送中断
  46:Core/Src/Interrupt.c ****     if (((USART2_BASS->SR & (0x1UL << 7)) == 0x1UL << 7) && ((USART2_BASS->CR1 & (0x1UL << 7)) == 0
 129              		.loc 1 46 5 view .LVU18
 130              		.loc 1 46 22 is_stmt 0 view .LVU19
 131 0002 2A4B     		ldr	r3, .L21
 132 0004 1B68     		ldr	r3, [r3]
ARM GAS  C:\Users\YLAI2\AppData\Local\Temp\ccI30fPT.s 			page 4


 133 0006 1A68     		ldr	r2, [r3]
 134              		.loc 1 46 8 view .LVU20
 135 0008 12F0800F 		tst	r2, #128
 136 000c 03D0     		beq	.L9
 137              		.loc 1 46 74 discriminator 1 view .LVU21
 138 000e DB68     		ldr	r3, [r3, #12]
 139              		.loc 1 46 58 discriminator 1 view .LVU22
 140 0010 13F0800F 		tst	r3, #128
 141 0014 16D1     		bne	.L16
 142              	.L9:
  47:Core/Src/Interrupt.c ****     {
  48:Core/Src/Interrupt.c ****         uart2_out_IT();
  49:Core/Src/Interrupt.c ****     }
  50:Core/Src/Interrupt.c ****     // 接受寄存器满 且开启了发送中断
  51:Core/Src/Interrupt.c ****     if (((USART2_BASS->SR & (0x1UL << 5)) == 0x1UL << 5) && ((USART2_BASS->CR1 & (0x1UL << 5)) == 0
 143              		.loc 1 51 5 is_stmt 1 view .LVU23
 144              		.loc 1 51 22 is_stmt 0 view .LVU24
 145 0016 254B     		ldr	r3, .L21
 146 0018 1B68     		ldr	r3, [r3]
 147 001a 1A68     		ldr	r2, [r3]
 148              		.loc 1 51 8 view .LVU25
 149 001c 12F0200F 		tst	r2, #32
 150 0020 0FD0     		beq	.L8
 151              		.loc 1 51 74 discriminator 1 view .LVU26
 152 0022 DA68     		ldr	r2, [r3, #12]
 153              		.loc 1 51 58 discriminator 1 view .LVU27
 154 0024 12F0200F 		tst	r2, #32
 155 0028 0BD0     		beq	.L8
 156              	.LBB2:
  52:Core/Src/Interrupt.c ****     {
  53:Core/Src/Interrupt.c **** #if uart_IT
  54:Core/Src/Interrupt.c ****         uint8_t data = USART2_BASS->DR;
 157              		.loc 1 54 9 is_stmt 1 view .LVU28
 158              		.loc 1 54 35 is_stmt 0 view .LVU29
 159 002a 5868     		ldr	r0, [r3, #4]
 160              		.loc 1 54 17 view .LVU30
 161 002c C0B2     		uxtb	r0, r0
 162              	.LVL1:
  55:Core/Src/Interrupt.c **** 
  56:Core/Src/Interrupt.c ****         // 开始接收新的一帧
  57:Core/Src/Interrupt.c ****         if (data == 0x5a && data_count == 0)
 163              		.loc 1 57 9 is_stmt 1 view .LVU31
 164              		.loc 1 57 12 is_stmt 0 view .LVU32
 165 002e 5A28     		cmp	r0, #90
 166 0030 0BD0     		beq	.L17
 167              	.L11:
  58:Core/Src/Interrupt.c ****         {
  59:Core/Src/Interrupt.c ****             // 标记为接收到了第二字节
  60:Core/Src/Interrupt.c ****             get_frame_head = true;
  61:Core/Src/Interrupt.c ****             data_count = 1;
  62:Core/Src/Interrupt.c ****             return;
  63:Core/Src/Interrupt.c ****         }
  64:Core/Src/Interrupt.c **** 
  65:Core/Src/Interrupt.c ****         // 接收到了一帧的第二字节
  66:Core/Src/Interrupt.c ****         if (get_frame_head == true)
 168              		.loc 1 66 9 is_stmt 1 view .LVU33
 169              		.loc 1 66 28 is_stmt 0 view .LVU34
ARM GAS  C:\Users\YLAI2\AppData\Local\Temp\ccI30fPT.s 			page 5


 170 0032 1F4B     		ldr	r3, .L21+4
 171 0034 1B78     		ldrb	r3, [r3]	@ zero_extendqisi2
 172              		.loc 1 66 12 view .LVU35
 173 0036 012B     		cmp	r3, #1
 174 0038 11D0     		beq	.L18
  67:Core/Src/Interrupt.c ****         {
  68:Core/Src/Interrupt.c ****             if (data == 0xa5)
  69:Core/Src/Interrupt.c ****             {
  70:Core/Src/Interrupt.c ****                 // 允许接收
  71:Core/Src/Interrupt.c ****                 data_count = 2;
  72:Core/Src/Interrupt.c ****                 uart2_in_IT(0x5a);
  73:Core/Src/Interrupt.c ****                 uart2_in_IT(0xa5);
  74:Core/Src/Interrupt.c ****             }
  75:Core/Src/Interrupt.c ****             else
  76:Core/Src/Interrupt.c ****             {
  77:Core/Src/Interrupt.c ****                 data_count = 0; // 不是第二字节
  78:Core/Src/Interrupt.c ****             }
  79:Core/Src/Interrupt.c ****             get_frame_head = false;
  80:Core/Src/Interrupt.c ****             return;
  81:Core/Src/Interrupt.c ****         }
  82:Core/Src/Interrupt.c **** 
  83:Core/Src/Interrupt.c ****         // 写入数据
  84:Core/Src/Interrupt.c ****         if (data_count >= 2)
 175              		.loc 1 84 9 is_stmt 1 view .LVU36
 176              		.loc 1 84 24 is_stmt 0 view .LVU37
 177 003a 1E4B     		ldr	r3, .L21+8
 178 003c 1B78     		ldrb	r3, [r3]	@ zero_extendqisi2
 179              		.loc 1 84 12 view .LVU38
 180 003e 012B     		cmp	r3, #1
 181 0040 20D8     		bhi	.L19
 182              	.LVL2:
 183              	.L8:
 184              		.loc 1 84 12 view .LVU39
 185              	.LBE2:
  85:Core/Src/Interrupt.c ****         {
  86:Core/Src/Interrupt.c ****             uart2_in_IT(data);
  87:Core/Src/Interrupt.c ****             data_count++;
  88:Core/Src/Interrupt.c ****             if (data_count == 14) // 接满一帧
  89:Core/Src/Interrupt.c ****             {
  90:Core/Src/Interrupt.c ****                 uint8_t temp = get_frame_count();
  91:Core/Src/Interrupt.c ****                 set_frame_count(temp + 1);
  92:Core/Src/Interrupt.c ****                 data_count = 0; //重新接收帧头
  93:Core/Src/Interrupt.c ****             }
  94:Core/Src/Interrupt.c ****         }
  95:Core/Src/Interrupt.c **** #endif
  96:Core/Src/Interrupt.c ****     }
  97:Core/Src/Interrupt.c **** }
 186              		.loc 1 97 1 view .LVU40
 187 0042 08BD     		pop	{r3, pc}
 188              	.L16:
  48:Core/Src/Interrupt.c ****     }
 189              		.loc 1 48 9 is_stmt 1 view .LVU41
 190 0044 FFF7FEFF 		bl	uart2_out_IT
 191              	.LVL3:
 192 0048 E5E7     		b	.L9
 193              	.LVL4:
 194              	.L17:
ARM GAS  C:\Users\YLAI2\AppData\Local\Temp\ccI30fPT.s 			page 6


 195              	.LBB4:
  57:Core/Src/Interrupt.c ****         {
 196              		.loc 1 57 40 is_stmt 0 discriminator 1 view .LVU42
 197 004a 1A4B     		ldr	r3, .L21+8
 198 004c 1B78     		ldrb	r3, [r3]	@ zero_extendqisi2
  57:Core/Src/Interrupt.c ****         {
 199              		.loc 1 57 26 discriminator 1 view .LVU43
 200 004e 002B     		cmp	r3, #0
 201 0050 EFD1     		bne	.L11
  60:Core/Src/Interrupt.c ****             data_count = 1;
 202              		.loc 1 60 13 is_stmt 1 view .LVU44
  60:Core/Src/Interrupt.c ****             data_count = 1;
 203              		.loc 1 60 28 is_stmt 0 view .LVU45
 204 0052 0123     		movs	r3, #1
 205 0054 164A     		ldr	r2, .L21+4
 206 0056 1370     		strb	r3, [r2]
  61:Core/Src/Interrupt.c ****             return;
 207              		.loc 1 61 13 is_stmt 1 view .LVU46
  61:Core/Src/Interrupt.c ****             return;
 208              		.loc 1 61 24 is_stmt 0 view .LVU47
 209 0058 164A     		ldr	r2, .L21+8
 210 005a 1370     		strb	r3, [r2]
  62:Core/Src/Interrupt.c ****         }
 211              		.loc 1 62 13 is_stmt 1 view .LVU48
 212 005c F1E7     		b	.L8
 213              	.L18:
  68:Core/Src/Interrupt.c ****             {
 214              		.loc 1 68 13 view .LVU49
  68:Core/Src/Interrupt.c ****             {
 215              		.loc 1 68 16 is_stmt 0 view .LVU50
 216 005e A528     		cmp	r0, #165
 217 0060 06D0     		beq	.L20
  77:Core/Src/Interrupt.c ****             }
 218              		.loc 1 77 17 is_stmt 1 view .LVU51
  77:Core/Src/Interrupt.c ****             }
 219              		.loc 1 77 28 is_stmt 0 view .LVU52
 220 0062 144B     		ldr	r3, .L21+8
 221 0064 0022     		movs	r2, #0
 222 0066 1A70     		strb	r2, [r3]
 223              	.LVL5:
 224              	.L14:
  79:Core/Src/Interrupt.c ****             return;
 225              		.loc 1 79 13 is_stmt 1 view .LVU53
  79:Core/Src/Interrupt.c ****             return;
 226              		.loc 1 79 28 is_stmt 0 view .LVU54
 227 0068 114B     		ldr	r3, .L21+4
 228 006a 0022     		movs	r2, #0
 229 006c 1A70     		strb	r2, [r3]
  80:Core/Src/Interrupt.c ****         }
 230              		.loc 1 80 13 is_stmt 1 view .LVU55
 231 006e E8E7     		b	.L8
 232              	.LVL6:
 233              	.L20:
  71:Core/Src/Interrupt.c ****                 uart2_in_IT(0x5a);
 234              		.loc 1 71 17 view .LVU56
  71:Core/Src/Interrupt.c ****                 uart2_in_IT(0x5a);
 235              		.loc 1 71 28 is_stmt 0 view .LVU57
ARM GAS  C:\Users\YLAI2\AppData\Local\Temp\ccI30fPT.s 			page 7


 236 0070 104B     		ldr	r3, .L21+8
 237 0072 0222     		movs	r2, #2
 238 0074 1A70     		strb	r2, [r3]
  72:Core/Src/Interrupt.c ****                 uart2_in_IT(0xa5);
 239              		.loc 1 72 17 is_stmt 1 view .LVU58
 240 0076 5A20     		movs	r0, #90
 241              	.LVL7:
  72:Core/Src/Interrupt.c ****                 uart2_in_IT(0xa5);
 242              		.loc 1 72 17 is_stmt 0 view .LVU59
 243 0078 FFF7FEFF 		bl	uart2_in_IT
 244              	.LVL8:
  73:Core/Src/Interrupt.c ****             }
 245              		.loc 1 73 17 is_stmt 1 view .LVU60
 246 007c A520     		movs	r0, #165
 247 007e FFF7FEFF 		bl	uart2_in_IT
 248              	.LVL9:
 249 0082 F1E7     		b	.L14
 250              	.LVL10:
 251              	.L19:
  86:Core/Src/Interrupt.c ****             data_count++;
 252              		.loc 1 86 13 view .LVU61
 253 0084 FFF7FEFF 		bl	uart2_in_IT
 254              	.LVL11:
  87:Core/Src/Interrupt.c ****             if (data_count == 14) // 接满一帧
 255              		.loc 1 87 13 view .LVU62
  87:Core/Src/Interrupt.c ****             if (data_count == 14) // 接满一帧
 256              		.loc 1 87 23 is_stmt 0 view .LVU63
 257 0088 0A4A     		ldr	r2, .L21+8
 258 008a 1378     		ldrb	r3, [r2]	@ zero_extendqisi2
 259 008c 0133     		adds	r3, r3, #1
 260 008e DBB2     		uxtb	r3, r3
 261 0090 1370     		strb	r3, [r2]
  88:Core/Src/Interrupt.c ****             {
 262              		.loc 1 88 13 is_stmt 1 view .LVU64
  88:Core/Src/Interrupt.c ****             {
 263              		.loc 1 88 16 is_stmt 0 view .LVU65
 264 0092 0E2B     		cmp	r3, #14
 265 0094 D5D1     		bne	.L8
 266              	.LBB3:
  90:Core/Src/Interrupt.c ****                 set_frame_count(temp + 1);
 267              		.loc 1 90 17 is_stmt 1 view .LVU66
  90:Core/Src/Interrupt.c ****                 set_frame_count(temp + 1);
 268              		.loc 1 90 32 is_stmt 0 view .LVU67
 269 0096 FFF7FEFF 		bl	get_frame_count
 270              	.LVL12:
  91:Core/Src/Interrupt.c ****                 data_count = 0; //重新接收帧头
 271              		.loc 1 91 17 is_stmt 1 view .LVU68
 272 009a 0130     		adds	r0, r0, #1
 273              	.LVL13:
  91:Core/Src/Interrupt.c ****                 data_count = 0; //重新接收帧头
 274              		.loc 1 91 17 is_stmt 0 view .LVU69
 275 009c C0B2     		uxtb	r0, r0
 276              	.LVL14:
  91:Core/Src/Interrupt.c ****                 data_count = 0; //重新接收帧头
 277              		.loc 1 91 17 view .LVU70
 278 009e FFF7FEFF 		bl	set_frame_count
 279              	.LVL15:
ARM GAS  C:\Users\YLAI2\AppData\Local\Temp\ccI30fPT.s 			page 8


  92:Core/Src/Interrupt.c ****             }
 280              		.loc 1 92 17 is_stmt 1 view .LVU71
  92:Core/Src/Interrupt.c ****             }
 281              		.loc 1 92 28 is_stmt 0 view .LVU72
 282 00a2 044B     		ldr	r3, .L21+8
 283 00a4 0022     		movs	r2, #0
 284 00a6 1A70     		strb	r2, [r3]
 285 00a8 CBE7     		b	.L8
 286              	.L22:
 287 00aa 00BF     		.align	2
 288              	.L21:
 289 00ac 00000000 		.word	USART2_BASS
 290 00b0 00000000 		.word	get_frame_head
 291 00b4 00000000 		.word	data_count
 292              	.LBE3:
 293              	.LBE4:
 294              		.cfi_endproc
 295              	.LFE3:
 297              		.section	.text.USART1_IRQHandler,"ax",%progbits
 298              		.align	1
 299              		.global	USART1_IRQHandler
 300              		.syntax unified
 301              		.thumb
 302              		.thumb_func
 304              	USART1_IRQHandler:
 305              	.LFB4:
  98:Core/Src/Interrupt.c **** void USART1_IRQHandler(void)
  99:Core/Src/Interrupt.c **** {
 306              		.loc 1 99 1 is_stmt 1 view -0
 307              		.cfi_startproc
 308              		@ args = 0, pretend = 0, frame = 0
 309              		@ frame_needed = 0, uses_anonymous_args = 0
 310 0000 08B5     		push	{r3, lr}
 311              		.cfi_def_cfa_offset 8
 312              		.cfi_offset 3, -8
 313              		.cfi_offset 14, -4
 100:Core/Src/Interrupt.c ****     // 发送寄存器空 且开启了发送中断
 101:Core/Src/Interrupt.c ****     if (((USART1_BASS->SR & (0x1UL << 7)) == 0x1UL << 7) && ((USART1_BASS->CR1 & (0x1UL << 7)) == 0
 314              		.loc 1 101 5 view .LVU74
 315              		.loc 1 101 22 is_stmt 0 view .LVU75
 316 0002 0E4B     		ldr	r3, .L29
 317 0004 1B68     		ldr	r3, [r3]
 318 0006 1A68     		ldr	r2, [r3]
 319              		.loc 1 101 8 view .LVU76
 320 0008 12F0800F 		tst	r2, #128
 321 000c 03D0     		beq	.L24
 322              		.loc 1 101 74 discriminator 1 view .LVU77
 323 000e DB68     		ldr	r3, [r3, #12]
 324              		.loc 1 101 58 discriminator 1 view .LVU78
 325 0010 13F0800F 		tst	r3, #128
 326 0014 0AD1     		bne	.L27
 327              	.L24:
 102:Core/Src/Interrupt.c ****     {
 103:Core/Src/Interrupt.c ****         uart_out_IT();
 104:Core/Src/Interrupt.c ****     }
 105:Core/Src/Interrupt.c ****     // 接受寄存器满 且开启了发送中断
 106:Core/Src/Interrupt.c ****     if (((USART1_BASS->SR & (0x1UL << 5)) == 0x1UL << 5) && ((USART1_BASS->CR1 & (0x1UL << 5)) == 0
ARM GAS  C:\Users\YLAI2\AppData\Local\Temp\ccI30fPT.s 			page 9


 328              		.loc 1 106 5 is_stmt 1 view .LVU79
 329              		.loc 1 106 22 is_stmt 0 view .LVU80
 330 0016 094B     		ldr	r3, .L29
 331 0018 1B68     		ldr	r3, [r3]
 332 001a 1A68     		ldr	r2, [r3]
 333              		.loc 1 106 8 view .LVU81
 334 001c 12F0200F 		tst	r2, #32
 335 0020 03D0     		beq	.L23
 336              		.loc 1 106 74 discriminator 1 view .LVU82
 337 0022 DA68     		ldr	r2, [r3, #12]
 338              		.loc 1 106 58 discriminator 1 view .LVU83
 339 0024 12F0200F 		tst	r2, #32
 340 0028 03D1     		bne	.L28
 341              	.L23:
 107:Core/Src/Interrupt.c ****     {
 108:Core/Src/Interrupt.c **** #if uart_IT
 109:Core/Src/Interrupt.c ****         uart_in_IT(USART1_BASS->DR);
 110:Core/Src/Interrupt.c **** #endif
 111:Core/Src/Interrupt.c ****     }
 112:Core/Src/Interrupt.c **** }...
 342              		.loc 1 112 1 view .LVU84
 343 002a 08BD     		pop	{r3, pc}
 344              	.L27:
 103:Core/Src/Interrupt.c ****         uart_out_IT();
 345              		.loc 1 103 9 is_stmt 1 view .LVU85
 346 002c FFF7FEFF 		bl	uart_out_IT
 347              	.LVL16:
 348 0030 F1E7     		b	.L24
 349              	.L28:
 109:Core/Src/Interrupt.c ****         uart_in_IT(USART1_BASS->DR);
 350              		.loc 1 109 9 view .LVU86
 109:Core/Src/Interrupt.c ****         uart_in_IT(USART1_BASS->DR);
 351              		.loc 1 109 31 is_stmt 0 view .LVU87
 352 0032 5868     		ldr	r0, [r3, #4]
 109:Core/Src/Interrupt.c ****         uart_in_IT(USART1_BASS->DR);
 353              		.loc 1 109 9 view .LVU88
 354 0034 C0B2     		uxtb	r0, r0
 355 0036 FFF7FEFF 		bl	uart_in_IT
 356              	.LVL17:
 357              		.loc 1 112 1 view .LVU89
 358 003a F6E7     		b	.L23
 359              	.L30:
 360              		.align	2
 361              	.L29:
 362 003c 00000000 		.word	USART1_BASS
 363              		.cfi_endproc
 364              	.LFE4:
 366              		.global	get_frame_head
 367              		.section	.bss.get_frame_head,"aw",%nobits
 370              	get_frame_head:
 371 0000 00       		.space	1
 372              		.global	data_count
 373              		.section	.bss.data_count,"aw",%nobits
 376              	data_count:
 377 0000 00       		.space	1
 378              		.text
 379              	.Letext0:
ARM GAS  C:\Users\YLAI2\AppData\Local\Temp\ccI30fPT.s 			page 10


 380              		.file 2 "Core/Inc/typedef_conf.h"
 381              		.file 3 "Core/Inc/Interrupt.h"
 382              		.file 4 "Core/Inc/uart_printf.h"
ARM GAS  C:\Users\YLAI2\AppData\Local\Temp\ccI30fPT.s 			page 11

